
out:     file format elf32-littleriscv


Disassembly of section .text:

00010054 <main>:
   10054:	fc010113          	addi	sp,sp,-64
   10058:	02812e23          	sw	s0,60(sp)
   1005c:	04010413          	addi	s0,sp,64
   10060:	fe042423          	sw	zero,-24(s0)
   10064:	00100793          	li	a5,1
   10068:	fef42223          	sw	a5,-28(s0)
   1006c:	fe842783          	lw	a5,-24(s0)
   10070:	fef42023          	sw	a5,-32(s0)
   10074:	fe842783          	lw	a5,-24(s0)
   10078:	fcf42e23          	sw	a5,-36(s0)
   1007c:	fe842783          	lw	a5,-24(s0)
   10080:	fcf42c23          	sw	a5,-40(s0)
   10084:	fe842783          	lw	a5,-24(s0)
   10088:	fef42623          	sw	a5,-20(s0)
   1008c:	fe842783          	lw	a5,-24(s0)
   10090:	fcf42a23          	sw	a5,-44(s0)
   10094:	fe842783          	lw	a5,-24(s0)
   10098:	fcf42823          	sw	a5,-48(s0)
   1009c:	fe842783          	lw	a5,-24(s0)
   100a0:	fcf42623          	sw	a5,-52(s0)
   100a4:	fc042423          	sw	zero,-56(s0)
   100a8:	f8000793          	li	a5,-128
   100ac:	fcf42223          	sw	a5,-60(s0)
   100b0:	fc442783          	lw	a5,-60(s0)
   100b4:	00ff7f33          	and	t5,t5,a5
   100b8:	001f7613          	andi	a2,t5,1
   100bc:	001f5f13          	srli	t5,t5,0x1
   100c0:	001f7693          	andi	a3,t5,1
   100c4:	002f5f13          	srli	t5,t5,0x2
   100c8:	001f7713          	andi	a4,t5,1
   100cc:	003f5f13          	srli	t5,t5,0x3
   100d0:	001f7793          	andi	a5,t5,1
   100d4:	fec42023          	sw	a2,-32(s0)
   100d8:	fcd42e23          	sw	a3,-36(s0)
   100dc:	fce42c23          	sw	a4,-40(s0)
   100e0:	fcf42a23          	sw	a5,-44(s0)
   100e4:	fec42783          	lw	a5,-20(s0)
   100e8:	02079463          	bnez	a5,10110 <main+0xbc>
   100ec:	fc442783          	lw	a5,-60(s0)
   100f0:	004f5f13          	srli	t5,t5,0x4
   100f4:	001f7793          	andi	a5,t5,1
   100f8:	fef42623          	sw	a5,-20(s0)
   100fc:	fc042703          	lw	a4,-64(s0)
   10100:	00100793          	li	a5,1
   10104:	00f71663          	bne	a4,a5,10110 <main+0xbc>
   10108:	fe442783          	lw	a5,-28(s0)
   1010c:	fef42623          	sw	a5,-20(s0)
   10110:	fec42783          	lw	a5,-20(s0)
   10114:	0a078463          	beqz	a5,101bc <main+0x168>
   10118:	fe042783          	lw	a5,-32(s0)
   1011c:	02078263          	beqz	a5,10140 <main+0xec>
   10120:	fc842703          	lw	a4,-56(s0)
   10124:	00100793          	li	a5,1
   10128:	00f71c63          	bne	a4,a5,10140 <main+0xec>
   1012c:	fc442783          	lw	a5,-60(s0)
   10130:	005f5f13          	srli	t5,t5,0x5
   10134:	001f6793          	ori	a5,t5,1
   10138:	fcf42a23          	sw	a5,-44(s0)
   1013c:	0800006f          	j	101bc <main+0x168>
   10140:	fdc42783          	lw	a5,-36(s0)
   10144:	02078a63          	beqz	a5,10178 <main+0x124>
   10148:	fc842703          	lw	a4,-56(s0)
   1014c:	00200793          	li	a5,2
   10150:	02f71463          	bne	a4,a5,10178 <main+0x124>
   10154:	fc442783          	lw	a5,-60(s0)
   10158:	005f5f13          	srli	t5,t5,0x5
   1015c:	000f7793          	andi	a5,t5,0
   10160:	fcf42a23          	sw	a5,-44(s0)
   10164:	fc442783          	lw	a5,-60(s0)
   10168:	006f5f13          	srli	t5,t5,0x6
   1016c:	001f6793          	ori	a5,t5,1
   10170:	fcf42823          	sw	a5,-48(s0)
   10174:	0480006f          	j	101bc <main+0x168>
   10178:	fd842783          	lw	a5,-40(s0)
   1017c:	04078063          	beqz	a5,101bc <main+0x168>
   10180:	fc842703          	lw	a4,-56(s0)
   10184:	00300793          	li	a5,3
   10188:	02f71a63          	bne	a4,a5,101bc <main+0x168>
   1018c:	fc442783          	lw	a5,-60(s0)
   10190:	005f5f13          	srli	t5,t5,0x5
   10194:	000f7793          	andi	a5,t5,0
   10198:	fcf42a23          	sw	a5,-44(s0)
   1019c:	fc442783          	lw	a5,-60(s0)
   101a0:	006f5f13          	srli	t5,t5,0x6
   101a4:	000f7793          	andi	a5,t5,0
   101a8:	fcf42823          	sw	a5,-48(s0)
   101ac:	fc442783          	lw	a5,-60(s0)
   101b0:	007f5f13          	srli	t5,t5,0x7
   101b4:	001f6793          	ori	a5,t5,1
   101b8:	fcf42623          	sw	a5,-52(s0)
   101bc:	00000793          	li	a5,0
   101c0:	00078513          	mv	a0,a5
   101c4:	03c12403          	lw	s0,60(sp)
   101c8:	04010113          	addi	sp,sp,64
   101cc:	00008067          	ret
